target datalayout = "e-m:e-p270:32:32-p271:32:32-p272:64:64-i64:64-i128:128-f80:128-n8:16:32:64-S128"
target triple = "x86_64-pc-linux-gnu"

%struct.strbuf = type { i64, i64, ptr }
%struct.re_pattern_buffer = type { ptr, i64, i64, i64, ptr, ptr, i64, i8 }

@.str.150 = private unnamed_addr constant [12 x i8] c"^[!-9;-~]+:\00", align 1
@__const.is_mail.sb = private unnamed_addr constant %struct.strbuf { i64 0, i64 0, ptr @strbuf_slopbuf }, align 8
@.str.151 = private unnamed_addr constant [13 x i8] c"fseek failed\00", align 1
@.str.152 = private unnamed_addr constant [20 x i8] c"invalid pattern: %s\00", align 1

; Function Attrs: nounwind uwtable
define internal i32 @is_mail(ptr noundef %0) #0 {
  %2 = alloca ptr, align 8
  %3 = alloca ptr, align 8
  %4 = alloca %struct.strbuf, align 8
  %5 = alloca %struct.re_pattern_buffer, align 8
  %6 = alloca i32, align 4
  store ptr %0, ptr %2, align 8, !tbaa !29
  call void @llvm.lifetime.start.p0(i64 8, ptr %3) #14
  store ptr @.str.150, ptr %3, align 8, !tbaa !11
  call void @llvm.lifetime.start.p0(i64 24, ptr %4) #14
  call void @llvm.memcpy.p0.p0.i64(ptr align 8 %4, ptr align 8 @__const.is_mail.sb, i64 24, i1 false)
  call void @llvm.lifetime.start.p0(i64 64, ptr %5) #14
  call void @llvm.lifetime.start.p0(i64 4, ptr %6) #14
  store i32 1, ptr %6, align 4, !tbaa !4
  %7 = load ptr, ptr %2, align 8, !tbaa !29
  %8 = call i32 @fseek(ptr noundef %7, i64 noundef 0, i32 noundef 0)
  %9 = icmp ne i32 %8, 0
  br i1 %9, label %10, label %12

10:                                               ; preds = %1
  %11 = call ptr @_(ptr noundef @.str.151)
  call void (ptr, ...) @die_errno(ptr noundef %11) #15
  unreachable

12:                                               ; preds = %1
  %13 = load ptr, ptr %3, align 8, !tbaa !11
  %14 = call i32 @regcomp(ptr noundef %5, ptr noundef %13, i32 noundef 9)
  %15 = icmp ne i32 %14, 0
  br i1 %15, label %16, label %18

16:                                               ; preds = %12
  %17 = load ptr, ptr %3, align 8, !tbaa !11
  call void (ptr, ...) @die(ptr noundef @.str.152, ptr noundef %17) #15
  unreachable

18:                                               ; preds = %12
  br label %19

19:                                               ; preds = %48, %41, %18
  %20 = load ptr, ptr %2, align 8, !tbaa !29
  %21 = call i32 @strbuf_getline(ptr noundef %4, ptr noundef %20)
  %22 = icmp ne i32 %21, 0
  %23 = xor i1 %22, true
  br i1 %23, label %24, label %49

24:                                               ; preds = %19
  %25 = getelementptr inbounds nuw %struct.strbuf, ptr %4, i32 0, i32 1
  %26 = load i64, ptr %25, align 8, !tbaa !97
  %27 = icmp ne i64 %26, 0
  br i1 %27, label %29, label %28

28:                                               ; preds = %24
  br label %49

29:                                               ; preds = %24
  %30 = getelementptr inbounds nuw %struct.strbuf, ptr %4, i32 0, i32 2
  %31 = load ptr, ptr %30, align 8, !tbaa !57
  %32 = load i8, ptr %31, align 1, !tbaa !84
  %33 = sext i8 %32 to i32
  %34 = icmp eq i32 %33, 9
  br i1 %34, label %41, label %35

35:                                               ; preds = %29
  %36 = getelementptr inbounds nuw %struct.strbuf, ptr %4, i32 0, i32 2
  %37 = load ptr, ptr %36, align 8, !tbaa !57
  %38 = load i8, ptr %37, align 1, !tbaa !84
  %39 = sext i8 %38 to i32
  %40 = icmp eq i32 %39, 32
  br i1 %40, label %41, label %42

41:                                               ; preds = %35, %29
  br label %19, !llvm.loop !107

42:                                               ; preds = %35
  %43 = getelementptr inbounds nuw %struct.strbuf, ptr %4, i32 0, i32 2
  %44 = load ptr, ptr %43, align 8, !tbaa !57
  %45 = call i32 @regexec(ptr noundef %5, ptr noundef %44, i64 noundef 0, ptr noundef null, i32 noundef 0)
  %46 = icmp ne i32 %45, 0
  br i1 %46, label %47, label %48

47:                                               ; preds = %42
  store i32 0, ptr %6, align 4, !tbaa !4
  br label %50

48:                                               ; preds = %42
  br label %19, !llvm.loop !107

49:                                               ; preds = %28, %19
  br label %50

50:                                               ; preds = %49, %47
  call void @regfree(ptr noundef %5)
  call void @strbuf_release(ptr noundef %4)
  %51 = load i32, ptr %6, align 4, !tbaa !4
  call void @llvm.lifetime.end.p0(i64 4, ptr %6) #14
  call void @llvm.lifetime.end.p0(i64 64, ptr %5) #14
  call void @llvm.lifetime.end.p0(i64 24, ptr %4) #14
  call void @llvm.lifetime.end.p0(i64 8, ptr %3) #14
  ret i32 %51
}