; Function Attrs: nounwind uwtable
define internal fastcc range(i32 0, 2) i32 @is_mail(ptr noundef %0) unnamed_addr #0 {
  %2 = alloca %struct.strbuf, align 8
  %3 = alloca %struct.re_pattern_buffer, align 8
  call void @llvm.lifetime.start.p0(i64 24, ptr nonnull %2) #21
  call void @llvm.memcpy.p0.p0.i64(ptr noundef nonnull align 8 dereferenceable(24) %2, ptr noundef nonnull align 8 dereferenceable(24) @__const.show_patch.sb, i64 24, i1 false)
  call void @llvm.lifetime.start.p0(i64 64, ptr nonnull %3) #21
  %4 = tail call i32 @fseek(ptr noundef %0, i64 noundef 0, i32 noundef 0)
  %.not = icmp eq i32 %4, 0
  br i1 %.not, label %7, label %5

5:                                                ; preds = %1
  %6 = tail call fastcc ptr @_(ptr noundef nonnull @.str.151)
  tail call void (ptr, ...) @die_errno(ptr noundef %6) #22
  unreachable

7:                                                ; preds = %1
  %8 = call i32 @regcomp(ptr noundef nonnull %3, ptr noundef nonnull @.str.150, i32 noundef 9) #21
  %.not7 = icmp eq i32 %8, 0
  br i1 %.not7, label %.preheader, label %14

.preheader:                                       ; preds = %7
  %9 = call i32 @strbuf_getline(ptr noundef nonnull %2, ptr noundef %0) #21
  %.not810 = icmp eq i32 %9, 0
  %10 = getelementptr inbounds nuw i8, ptr %2, i64 8
  %11 = load i64, ptr %10, align 8
  %12 = icmp ne i64 %11, 0
  %or.cond11 = select i1 %.not810, i1 %12, i1 false
  br i1 %or.cond11, label %.lr.ph, label %._crit_edge

.lr.ph:                                           ; preds = %.preheader
  %13 = getelementptr inbounds nuw i8, ptr %2, i64 16
  br label %15

14:                                               ; preds = %7
  call void (ptr, ...) @die(ptr noundef nonnull @.str.152, ptr noundef nonnull @.str.150) #22
  unreachable

15:                                               ; preds = %.lr.ph, %.backedge
  %16 = load ptr, ptr %13, align 8, !tbaa !51
  %17 = load i8, ptr %16, align 1, !tbaa !47
  switch i8 %17, label %21 [
    i8 9, label %.backedge
    i8 32, label %.backedge
  ]

.backedge:                                        ; preds = %15, %15, %21
  %18 = call i32 @strbuf_getline(ptr noundef nonnull %2, ptr noundef %0) #21
  %.not8 = icmp eq i32 %18, 0
  %19 = load i64, ptr %10, align 8
  %20 = icmp ne i64 %19, 0
  %or.cond = select i1 %.not8, i1 %20, i1 false
  br i1 %or.cond, label %15, label %._crit_edge, !llvm.loop !167

21:                                               ; preds = %15
  %22 = call i32 @regexec(ptr noundef nonnull %3, ptr noundef nonnull %16, i64 noundef 0, ptr noundef null, i32 noundef 0) #21
  %.not9 = icmp eq i32 %22, 0
  br i1 %.not9, label %.backedge, label %._crit_edge

._crit_edge:                                      ; preds = %.backedge, %21, %.preheader
  %.0 = phi i32 [ 1, %.preheader ], [ 0, %21 ], [ 1, %.backedge ]
  call void @regfree(ptr noundef nonnull %3) #21
  call void @strbuf_release(ptr noundef nonnull %2) #21
  call void @llvm.lifetime.end.p0(i64 64, ptr nonnull %3) #21
  call void @llvm.lifetime.end.p0(i64 24, ptr nonnull %2) #21
  ret i32 %.0
}